target datalayout = "e-m:e-p270:32:32-p271:32:32-p272:64:64-i64:64-i128:128-f80:128-n8:16:32:64-S128"
target triple = "x86_64-pc-linux-gnu"

%struct.DCACoreDecoder = type { ptr, %struct.GetBitContext, %struct.GetBitContext, i32, i32, i32, i32, i32, i32, i32, i32, i32, i32, i32, i32, i32, i32, i32, i32, i32, i32, i32, i32, i32, i32, [7 x i8], [7 x i8], [7 x i8], [7 x i8], [7 x i8], [7 x i8], [7 x [10 x i8]], [7 x [10 x i32]], [16 x i8], [7 x [64 x i8]], [7 x [64 x i16]], [7 x [64 x i8]], [16 x [7 x [32 x i8]]], [7 x [32 x [2 x i32]]], [7 x i8], [7 x [64 x i32]], i32, i32, [24 x i32], i32, i32, i32, i32, i32, i32, i32, i32, [2 x i32], [12 x i32], i32, i32, i32, i32, i32, i32, i32, i32, i32, ptr, [7 x [64 x ptr]], i32, ptr, [7 x [32 x ptr]], ptr, [8 x i8], [7 x %struct.DCADSPData], ptr, %struct.DCADCTContext, [2 x ptr], [2 x ptr], %struct.SynthFilterContext, ptr, ptr, i32, ptr, [32 x ptr], i32, float, [32 x i32], i32, i32, i32, i32 }
%struct.GetBitContext = type { ptr, ptr, i32, i32, i32 }
%struct.DCADSPData = type { %union.anon, i32, [12 x i8] }
%union.anon = type { %struct.anon }
%struct.anon = type { [1024 x float], [64 x float] }
%struct.DCADCTContext = type { [2 x ptr] }
%struct.SynthFilterContext = type { ptr, ptr, ptr, ptr }

; Function Attrs: cold nounwind optsize uwtable
define i32 @ff_dca_core_init(ptr noundef %0) #6 {
  %2 = alloca i32, align 4
  %3 = alloca ptr, align 8
  %4 = alloca i32, align 4
  %5 = alloca float, align 4
  %6 = alloca i32, align 4
  store ptr %0, ptr %3, align 8, !tbaa !4
  call void @llvm.lifetime.start.p0(i64 4, ptr %4) #11
  call void @llvm.lifetime.start.p0(i64 4, ptr %5) #11
  store float 1.000000e+00, ptr %5, align 4, !tbaa !203
  %7 = call ptr @avpriv_float_dsp_alloc(i32 noundef 0)
  %8 = load ptr, ptr %3, align 8, !tbaa !4
  %9 = getelementptr inbounds nuw %struct.DCACoreDecoder, ptr %8, i32 0, i32 76
  store ptr %7, ptr %9, align 8, !tbaa !200
  %10 = icmp ne ptr %7, null
  br i1 %10, label %12, label %11

11:                                               ; preds = %1
  store i32 -1, ptr %2, align 4
  store i32 1, ptr %6, align 4
  br label %47

12:                                               ; preds = %1
  %13 = call ptr @avpriv_alloc_fixed_dsp(i32 noundef 0)
  %14 = load ptr, ptr %3, align 8, !tbaa !4
  %15 = getelementptr inbounds nuw %struct.DCACoreDecoder, ptr %14, i32 0, i32 77
  store ptr %13, ptr %15, align 16, !tbaa !186
  %16 = icmp ne ptr %13, null
  br i1 %16, label %18, label %17

17:                                               ; preds = %12
  store i32 -1, ptr %2, align 4
  store i32 1, ptr %6, align 4
  br label %47

18:                                               ; preds = %12
  %19 = load ptr, ptr %3, align 8, !tbaa !4
  %20 = getelementptr inbounds nuw %struct.DCACoreDecoder, ptr %19, i32 0, i32 72
  call void @ff_dcadct_init(ptr noundef %20) #14
  %21 = load ptr, ptr %3, align 8, !tbaa !4
  %22 = getelementptr inbounds nuw %struct.DCACoreDecoder, ptr %21, i32 0, i32 73
  %23 = getelementptr inbounds [2 x ptr], ptr %22, i64 0, i64 0
  %24 = load ptr, ptr %3, align 8, !tbaa !4
  %25 = getelementptr inbounds nuw %struct.DCACoreDecoder, ptr %24, i32 0, i32 74
  %26 = getelementptr inbounds [2 x ptr], ptr %25, i64 0, i64 0
  %27 = call i32 @av_tx_init(ptr noundef %23, ptr noundef %26, i32 noundef 1, i32 noundef 1, i32 noundef 32, ptr noundef %5, i64 noundef 0)
  store i32 %27, ptr %4, align 4, !tbaa !11
  %28 = icmp slt i32 %27, 0
  br i1 %28, label %29, label %31

29:                                               ; preds = %18
  %30 = load i32, ptr %4, align 4, !tbaa !11
  store i32 %30, ptr %2, align 4
  store i32 1, ptr %6, align 4
  br label %47

31:                                               ; preds = %18
  %32 = load ptr, ptr %3, align 8, !tbaa !4
  %33 = getelementptr inbounds nuw %struct.DCACoreDecoder, ptr %32, i32 0, i32 73
  %34 = getelementptr inbounds [2 x ptr], ptr %33, i64 0, i64 1
  %35 = load ptr, ptr %3, align 8, !tbaa !4
  %36 = getelementptr inbounds nuw %struct.DCACoreDecoder, ptr %35, i32 0, i32 74
  %37 = getelementptr inbounds [2 x ptr], ptr %36, i64 0, i64 1
  %38 = call i32 @av_tx_init(ptr noundef %34, ptr noundef %37, i32 noundef 1, i32 noundef 1, i32 noundef 64, ptr noundef %5, i64 noundef 0)
  store i32 %38, ptr %4, align 4, !tbaa !11
  %39 = icmp slt i32 %38, 0
  br i1 %39, label %40, label %42

40:                                               ; preds = %31
  %41 = load i32, ptr %4, align 4, !tbaa !11
  store i32 %41, ptr %2, align 4
  store i32 1, ptr %6, align 4
  br label %47

42:                                               ; preds = %31
  %43 = load ptr, ptr %3, align 8, !tbaa !4
  %44 = getelementptr inbounds nuw %struct.DCACoreDecoder, ptr %43, i32 0, i32 75
  call void @ff_synth_filter_init(ptr noundef %44)
  %45 = load ptr, ptr %3, align 8, !tbaa !4
  %46 = getelementptr inbounds nuw %struct.DCACoreDecoder, ptr %45, i32 0, i32 60
  store i32 1, ptr %46, align 8, !tbaa !216
  store i32 0, ptr %2, align 4
  store i32 1, ptr %6, align 4
  br label %47

47:                                               ; preds = %42, %40, %29, %17, %11
  call void @llvm.lifetime.end.p0(i64 4, ptr %5) #11
  call void @llvm.lifetime.end.p0(i64 4, ptr %4) #11
  %48 = load i32, ptr %2, align 4
  ret i32 %48
}