; Function Attrs: cold nounwind optsize uwtable
define range(i32 -2147483648, 1) i32 @ff_dca_core_init(ptr noundef initializes((45848, 45856)) %0) local_unnamed_addr #6 {
  %2 = alloca float, align 4
  call void @llvm.lifetime.start.p0(i64 4, ptr nonnull %2) #11
  store float 1.000000e+00, ptr %2, align 4, !tbaa !270
  %3 = tail call ptr @avpriv_float_dsp_alloc(i32 noundef 0) #11
  %4 = getelementptr inbounds nuw i8, ptr %0, i64 45848
  store ptr %3, ptr %4, align 8, !tbaa !260
  %.not = icmp eq ptr %3, null
  br i1 %.not, label %22, label %5

5:                                                ; preds = %1
  %6 = tail call ptr @avpriv_alloc_fixed_dsp(i32 noundef 0) #11
  %7 = getelementptr inbounds nuw i8, ptr %0, i64 45856
  store ptr %6, ptr %7, align 16, !tbaa !246
  %.not13 = icmp eq ptr %6, null
  br i1 %.not13, label %22, label %8

8:                                                ; preds = %5
  %9 = getelementptr inbounds nuw i8, ptr %0, i64 45768
  tail call void @ff_dcadct_init(ptr noundef nonnull %9) #13
  %10 = getelementptr inbounds nuw i8, ptr %0, i64 45784
  %11 = getelementptr inbounds nuw i8, ptr %0, i64 45800
  %12 = call i32 @av_tx_init(ptr noundef nonnull %10, ptr noundef nonnull %11, i32 noundef 1, i32 noundef 1, i32 noundef 32, ptr noundef nonnull %2, i64 noundef 0) #11
  %13 = icmp slt i32 %12, 0
  br i1 %13, label %22, label %14

14:                                               ; preds = %8
  %15 = getelementptr inbounds nuw i8, ptr %0, i64 45792
  %16 = getelementptr inbounds nuw i8, ptr %0, i64 45808
  %17 = call i32 @av_tx_init(ptr noundef nonnull %15, ptr noundef nonnull %16, i32 noundef 1, i32 noundef 1, i32 noundef 64, ptr noundef nonnull %2, i64 noundef 0) #11
  %18 = icmp slt i32 %17, 0
  br i1 %18, label %22, label %19

19:                                               ; preds = %14
  %20 = getelementptr inbounds nuw i8, ptr %0, i64 45816
  call void @ff_synth_filter_init(ptr noundef nonnull %20) #11
  %21 = getelementptr inbounds nuw i8, ptr %0, i64 9752
  store i32 1, ptr %21, align 8, !tbaa !271
  br label %22

22:                                               ; preds = %14, %8, %5, %1, %19
  %.0 = phi i32 [ 0, %19 ], [ -1, %1 ], [ -1, %5 ], [ %12, %8 ], [ %17, %14 ]
  call void @llvm.lifetime.end.p0(i64 4, ptr nonnull %2) #11
  ret i32 %.0
}